target datalayout = "e-m:e-p270:32:32-p271:32:32-p272:64:64-i64:64-i128:128-f80:128-n8:16:32:64-S128"
target triple = "x86_64-unknown-linux-gnu"

%"class.FLAC::Metadata::Prototype" = type <{ ptr, ptr, i8, [7 x i8] }>

; Function Attrs: mustprogress sspstrong uwtable
define noundef zeroext i1 @_ZN4FLAC8Metadata11Application8set_dataEPhjb(ptr noundef nonnull align 8 dereferenceable(17) %this, ptr noundef %data, i32 noundef %length, i1 noundef zeroext %copy) #0 align 2 {
entry:
  %this.addr = alloca ptr, align 8
  %data.addr = alloca ptr, align 8
  %length.addr = alloca i32, align 4
  %copy.addr = alloca i8, align 1
  store ptr %this, ptr %this.addr, align 8
  store ptr %data, ptr %data.addr, align 8
  store i32 %length, ptr %length.addr, align 4
  %frombool = zext i1 %copy to i8
  store i8 %frombool, ptr %copy.addr, align 1
  %this1 = load ptr, ptr %this.addr, align 8
  %object_ = getelementptr inbounds %"class.FLAC::Metadata::Prototype", ptr %this1, i32 0, i32 1
  %0 = load ptr, ptr %object_, align 8
  %1 = load ptr, ptr %data.addr, align 8
  %2 = load i32, ptr %length.addr, align 4
  %3 = load i8, ptr %copy.addr, align 1
  %tobool = trunc i8 %3 to i1
  %conv = zext i1 %tobool to i32
  %call = call i32 @FLAC__metadata_object_application_set_data(ptr noundef %0, ptr noundef %1, i32 noundef %2, i32 noundef %conv)
  %tobool2 = icmp ne i32 %call, 0
  ret i1 %tobool2
}