; Function Attrs: mustprogress sspstrong uwtable
define noundef zeroext i1 @_ZN4FLAC8Metadata11Application8set_dataEPhjb(ptr nocapture noundef nonnull readonly align 8 dereferenceable(17) %this, ptr noundef %data, i32 noundef %length, i1 noundef zeroext %copy) local_unnamed_addr #0 align 2 {
entry:
  %object_ = getelementptr inbounds i8, ptr %this, i64 8
  %0 = load ptr, ptr %object_, align 8
  %conv = zext i1 %copy to i32
  %call = tail call i32 @FLAC__metadata_object_application_set_data(ptr noundef %0, ptr noundef %data, i32 noundef %length, i32 noundef %conv)
  %tobool2 = icmp ne i32 %call, 0
  ret i1 %tobool2
}